; Function Attrs: nofree norecurse nosync nounwind memory(read, inaccessiblemem: none) uwtable
define i32 @Pla_ManDist1Num(ptr noundef readonly captures(none) %0) local_unnamed_addr #6 {
  %2 = getelementptr i8, ptr %0, i64 44
  %.val20 = load i32, ptr %2, align 4, !tbaa !21
  %3 = icmp sgt i32 %.val20, 0
  br i1 %3, label %.lr.ph29, label %.critedge

.lr.ph29:                                         ; preds = %1
  %4 = getelementptr i8, ptr %0, i64 28
  %.val23 = load i32, ptr %4, align 4, !tbaa !34
  %.val23.fr = freeze i32 %.val23
  %5 = getelementptr i8, ptr %0, i64 80
  %.val24 = load ptr, ptr %5, align 8, !tbaa !26
  %6 = icmp sgt i32 %.val23.fr, 0
  %wide.trip.count.i = zext i32 %.val23.fr to i64
  br i1 %6, label %.lr.ph29.split.us.preheader, label %.critedge

.lr.ph29.split.us.preheader:                      ; preds = %.lr.ph29
  %7 = zext nneg i32 %.val20 to i64
  %wide.trip.count39 = zext nneg i32 %.val20 to i64
  br label %.lr.ph29.split.us

.lr.ph29.split.us:                                ; preds = %.lr.ph29.split.us.preheader, %.critedge2.loopexit.us
  %indvars.iv36 = phi i64 [ 0, %.lr.ph29.split.us.preheader ], [ %indvars.iv.next37, %.critedge2.loopexit.us ]
  %indvars.iv = phi i64 [ 1, %.lr.ph29.split.us.preheader ], [ %indvars.iv.next, %.critedge2.loopexit.us ]
  %.028.us = phi i32 [ 0, %.lr.ph29.split.us.preheader ], [ %.1.lcssa.us, %.critedge2.loopexit.us ]
  %8 = mul nuw nsw i64 %indvars.iv36, %wide.trip.count.i
  %9 = getelementptr inbounds nuw i64, ptr %.val24, i64 %8
  %indvars.iv.next37 = add nuw nsw i64 %indvars.iv36, 1
  %10 = icmp samesign ult i64 %indvars.iv.next37, %7
  br i1 %10, label %.lr.ph.preheader.i.us.us, label %.critedge2.loopexit.us

.critedge2.loopexit.us:                           ; preds = %Pla_CubesAreDistance1.exit.loopexit.us.us, %.lr.ph29.split.us
  %.1.lcssa.us = phi i32 [ %.028.us, %.lr.ph29.split.us ], [ %26, %Pla_CubesAreDistance1.exit.loopexit.us.us ]
  %indvars.iv.next = add nuw nsw i64 %indvars.iv, 1
  %exitcond40.not = icmp eq i64 %indvars.iv.next37, %wide.trip.count39
  br i1 %exitcond40.not, label %.critedge, label %.lr.ph29.split.us, !llvm.loop !62

.lr.ph.preheader.i.us.us:                         ; preds = %.lr.ph29.split.us, %Pla_CubesAreDistance1.exit.loopexit.us.us
  %indvars.iv33 = phi i64 [ %indvars.iv.next34, %Pla_CubesAreDistance1.exit.loopexit.us.us ], [ %indvars.iv, %.lr.ph29.split.us ]
  %.126.us.us = phi i32 [ %26, %Pla_CubesAreDistance1.exit.loopexit.us.us ], [ %.028.us, %.lr.ph29.split.us ]
  %11 = mul nuw nsw i64 %indvars.iv33, %wide.trip.count.i
  %12 = getelementptr inbounds nuw i64, ptr %.val24, i64 %11
  br label %.lr.ph.i.us.us

.lr.ph.i.us.us:                                   ; preds = %25, %.lr.ph.preheader.i.us.us
  %indvars.iv.i.us.us = phi i64 [ 0, %.lr.ph.preheader.i.us.us ], [ %indvars.iv.next.i.us.us, %25 ]
  %.026.i.us.us = phi i32 [ 0, %.lr.ph.preheader.i.us.us ], [ %.1.i.us.us, %25 ]
  %13 = getelementptr inbounds nuw i64, ptr %9, i64 %indvars.iv.i.us.us
  %14 = load i64, ptr %13, align 8, !tbaa !35
  %15 = getelementptr inbounds nuw i64, ptr %12, i64 %indvars.iv.i.us.us
  %16 = load i64, ptr %15, align 8, !tbaa !35
  %17 = icmp eq i64 %14, %16
  br i1 %17, label %25, label %18

18:                                               ; preds = %.lr.ph.i.us.us
  %.not.i.us.us = icmp eq i32 %.026.i.us.us, 0
  br i1 %.not.i.us.us, label %19, label %Pla_CubesAreDistance1.exit.loopexit.us.us

19:                                               ; preds = %18
  %20 = xor i64 %16, %14
  %21 = lshr i64 %20, 1
  %22 = or i64 %21, %20
  %23 = and i64 %22, 6148914691236517205
  %24 = tail call range(i64 0, 33) i64 @llvm.ctpop.i64(i64 range(i64 0, 6148914691236517206) %23)
  %or.cond.not.i.us.us = icmp eq i64 %24, 1
  br i1 %or.cond.not.i.us.us, label %25, label %Pla_CubesAreDistance1.exit.loopexit.us.us

25:                                               ; preds = %19, %.lr.ph.i.us.us
  %.1.i.us.us = phi i32 [ %.026.i.us.us, %.lr.ph.i.us.us ], [ 1, %19 ]
  %indvars.iv.next.i.us.us = add nuw nsw i64 %indvars.iv.i.us.us, 1
  %exitcond.not.i.us.us = icmp eq i64 %indvars.iv.next.i.us.us, %wide.trip.count.i
  br i1 %exitcond.not.i.us.us, label %Pla_CubesAreDistance1.exit.loopexit.us.us, label %.lr.ph.i.us.us, !llvm.loop !63

Pla_CubesAreDistance1.exit.loopexit.us.us:        ; preds = %25, %19, %18
  %.019.i.ph.us.us = phi i32 [ 0, %18 ], [ %.1.i.us.us, %25 ], [ 0, %19 ]
  %26 = add nsw i32 %.019.i.ph.us.us, %.126.us.us
  %indvars.iv.next34 = add nuw nsw i64 %indvars.iv33, 1
  %exitcond.not = icmp eq i64 %indvars.iv.next34, %wide.trip.count39
  br i1 %exitcond.not, label %.critedge2.loopexit.us, label %.lr.ph.preheader.i.us.us, !llvm.loop !64

.critedge:                                        ; preds = %.critedge2.loopexit.us, %.lr.ph29, %1
  %.0.lcssa = phi i32 [ 0, %1 ], [ 0, %.lr.ph29 ], [ %.1.lcssa.us, %.critedge2.loopexit.us ]
  ret i32 %.0.lcssa
}